; Function Attrs: mustprogress uwtable
define dso_local void @_ZN4Luau12TypeChecker25visitENS_11AstTypeListE(ptr noundef nonnull align 8 dereferenceable(784) %0, ptr noundef readonly byval(%"struct.Luau::AstTypeList") align 8 captures(none) %1) local_unnamed_addr #5 align 2 {
  %3 = load ptr, ptr %1, align 8, !tbaa !603
  %4 = getelementptr inbounds nuw i8, ptr %1, i64 8
  %5 = load i64, ptr %4, align 8, !tbaa !605
  %6 = getelementptr inbounds nuw ptr, ptr %3, i64 %5
  %.not19 = icmp eq i64 %5, 0
  br i1 %.not19, label %._crit_edge, label %.lr.ph

._crit_edge:                                      ; preds = %.lr.ph, %2
  %7 = getelementptr inbounds nuw i8, ptr %1, i64 16
  %8 = load ptr, ptr %7, align 8, !tbaa !783
  %.not9 = icmp eq ptr %8, null
  br i1 %.not9, label %_ZN4Luau12TypeChecker25visitEPNS_11AstTypePackE.exit, label %11

.lr.ph:                                           ; preds = %2, %.lr.ph
  %.020 = phi ptr [ %10, %.lr.ph ], [ %3, %2 ]
  %9 = load ptr, ptr %.020, align 8, !tbaa !422
  tail call void @_ZN4Luau12TypeChecker25visitEPNS_7AstTypeE(ptr noundef nonnull align 8 dereferenceable(784) %0, ptr noundef %9)
  %10 = getelementptr inbounds nuw i8, ptr %.020, i64 8
  %.not = icmp eq ptr %10, %6
  br i1 %.not, label %._crit_edge, label %.lr.ph

11:                                               ; preds = %._crit_edge
  %12 = getelementptr inbounds nuw i8, ptr %8, i64 8
  %13 = load i32, ptr %12, align 8, !tbaa !244
  %14 = load i32, ptr @_ZN4Luau7AstRttiINS_19AstTypePackExplicitEE5valueE, align 4, !tbaa !4
  %.not14 = icmp eq i32 %13, %14
  br i1 %.not14, label %15, label %26

15:                                               ; preds = %11
  %16 = getelementptr inbounds nuw i8, ptr %8, i64 32
  %17 = load ptr, ptr %16, align 8, !tbaa !603
  %18 = getelementptr inbounds nuw i8, ptr %8, i64 40
  %19 = load i64, ptr %18, align 8, !tbaa !605
  %20 = getelementptr inbounds nuw ptr, ptr %17, i64 %19
  %.not.i1121 = icmp eq i64 %19, 0
  br i1 %.not.i1121, label %._crit_edge25, label %.lr.ph24

._crit_edge25:                                    ; preds = %.lr.ph24, %15
  %21 = getelementptr inbounds nuw i8, ptr %8, i64 48
  %22 = load ptr, ptr %21, align 8, !tbaa !606
  %.not12.i = icmp eq ptr %22, null
  br i1 %.not12.i, label %_ZN4Luau12TypeChecker25visitEPNS_11AstTypePackE.exit, label %25

.lr.ph24:                                         ; preds = %15, %.lr.ph24
  %.0.i22 = phi ptr [ %24, %.lr.ph24 ], [ %17, %15 ]
  %23 = load ptr, ptr %.0.i22, align 8, !tbaa !422
  tail call void @_ZN4Luau12TypeChecker25visitEPNS_7AstTypeE(ptr noundef nonnull align 8 dereferenceable(784) %0, ptr noundef %23)
  %24 = getelementptr inbounds nuw i8, ptr %.0.i22, i64 8
  %.not.i11 = icmp eq ptr %24, %20
  br i1 %.not.i11, label %._crit_edge25, label %.lr.ph24

25:                                               ; preds = %._crit_edge25
  tail call void @_ZN4Luau12TypeChecker25visitEPNS_11AstTypePackE(ptr noundef nonnull align 8 dereferenceable(784) %0, ptr noundef nonnull %22) #37
  br label %_ZN4Luau12TypeChecker25visitEPNS_11AstTypePackE.exit

26:                                               ; preds = %11
  %27 = load i32, ptr @_ZN4Luau7AstRttiINS_19AstTypePackVariadicEE5valueE, align 4, !tbaa !4
  %.not16 = icmp eq i32 %13, %27
  br i1 %.not16, label %28, label %31

28:                                               ; preds = %26
  %29 = getelementptr inbounds nuw i8, ptr %8, i64 32
  %30 = load ptr, ptr %29, align 8, !tbaa !610
  tail call void @_ZN4Luau12TypeChecker25visitEPNS_7AstTypeE(ptr noundef nonnull align 8 dereferenceable(784) %0, ptr noundef %30)
  br label %_ZN4Luau12TypeChecker25visitEPNS_11AstTypePackE.exit

31:                                               ; preds = %26
  %32 = load i32, ptr @_ZN4Luau7AstRttiINS_18AstTypePackGenericEE5valueE, align 4, !tbaa !4
  %.not18 = icmp eq i32 %13, %32
  br i1 %.not18, label %33, label %_ZN4Luau12TypeChecker25visitEPNS_11AstTypePackE.exit

33:                                               ; preds = %31
  tail call void @_ZN4Luau12TypeChecker25visitEPNS_18AstTypePackGenericE(ptr noundef nonnull align 8 dereferenceable(784) %0, ptr noundef nonnull %8)
  br label %_ZN4Luau12TypeChecker25visitEPNS_11AstTypePackE.exit

_ZN4Luau12TypeChecker25visitEPNS_11AstTypePackE.exit: ; preds = %33, %31, %28, %._crit_edge25, %25, %._crit_edge
  ret void
}